target datalayout = "e-m:e-p270:32:32-p271:32:32-p272:64:64-i64:64-i128:128-f80:128-n8:16:32:64-S128"
target triple = "x86_64-pc-linux-gnu"

; Function Attrs: nounwind uwtable
define internal i32 @normal_predefinedEntityName(ptr noundef %0, ptr noundef %1, ptr noundef %2) #0 {
  %4 = alloca i32, align 4
  %5 = alloca ptr, align 8
  %6 = alloca ptr, align 8
  %7 = alloca ptr, align 8
  store ptr %0, ptr %5, align 8, !tbaa !45
  store ptr %1, ptr %6, align 8, !tbaa !4
  store ptr %2, ptr %7, align 8, !tbaa !4
  %8 = load ptr, ptr %7, align 8, !tbaa !4
  %9 = load ptr, ptr %6, align 8, !tbaa !4
  %10 = ptrtoint ptr %8 to i64
  %11 = ptrtoint ptr %9 to i64
  %12 = sub i64 %10, %11
  %13 = sdiv i64 %12, 1
  switch i64 %13, label %106 [
    i64 2, label %14
    i64 3, label %28
    i64 4, label %51
  ]

14:                                               ; preds = %3
  %15 = load ptr, ptr %6, align 8, !tbaa !4
  %16 = getelementptr inbounds i8, ptr %15, i64 1
  %17 = load i8, ptr %16, align 1, !tbaa !13
  %18 = sext i8 %17 to i32
  %19 = icmp eq i32 %18, 116
  br i1 %19, label %20, label %27

20:                                               ; preds = %14
  %21 = load ptr, ptr %6, align 8, !tbaa !4
  %22 = load i8, ptr %21, align 1, !tbaa !13
  %23 = sext i8 %22 to i32
  switch i32 %23, label %26 [
    i32 108, label %24
    i32 103, label %25
  ]

24:                                               ; preds = %20
  store i32 60, ptr %4, align 4
  br label %107

25:                                               ; preds = %20
  store i32 62, ptr %4, align 4
  br label %107

26:                                               ; preds = %20
  br label %27

27:                                               ; preds = %26, %14
  br label %106

28:                                               ; preds = %3
  %29 = load ptr, ptr %6, align 8, !tbaa !4
  %30 = load i8, ptr %29, align 1, !tbaa !13
  %31 = sext i8 %30 to i32
  %32 = icmp eq i32 %31, 97
  br i1 %32, label %33, label %50

33:                                               ; preds = %28
  %34 = load ptr, ptr %6, align 8, !tbaa !4
  %35 = getelementptr inbounds i8, ptr %34, i64 1
  store ptr %35, ptr %6, align 8, !tbaa !4
  %36 = load ptr, ptr %6, align 8, !tbaa !4
  %37 = load i8, ptr %36, align 1, !tbaa !13
  %38 = sext i8 %37 to i32
  %39 = icmp eq i32 %38, 109
  br i1 %39, label %40, label %49

40:                                               ; preds = %33
  %41 = load ptr, ptr %6, align 8, !tbaa !4
  %42 = getelementptr inbounds i8, ptr %41, i64 1
  store ptr %42, ptr %6, align 8, !tbaa !4
  %43 = load ptr, ptr %6, align 8, !tbaa !4
  %44 = load i8, ptr %43, align 1, !tbaa !13
  %45 = sext i8 %44 to i32
  %46 = icmp eq i32 %45, 112
  br i1 %46, label %47, label %48

47:                                               ; preds = %40
  store i32 38, ptr %4, align 4
  br label %107

48:                                               ; preds = %40
  br label %49

49:                                               ; preds = %48, %33
  br label %50

50:                                               ; preds = %49, %28
  br label %106

51:                                               ; preds = %3
  %52 = load ptr, ptr %6, align 8, !tbaa !4
  %53 = load i8, ptr %52, align 1, !tbaa !13
  %54 = sext i8 %53 to i32
  switch i32 %54, label %105 [
    i32 113, label %55
    i32 97, label %80
  ]

55:                                               ; preds = %51
  %56 = load ptr, ptr %6, align 8, !tbaa !4
  %57 = getelementptr inbounds i8, ptr %56, i64 1
  store ptr %57, ptr %6, align 8, !tbaa !4
  %58 = load ptr, ptr %6, align 8, !tbaa !4
  %59 = load i8, ptr %58, align 1, !tbaa !13
  %60 = sext i8 %59 to i32
  %61 = icmp eq i32 %60, 117
  br i1 %61, label %62, label %79

62:                                               ; preds = %55
  %63 = load ptr, ptr %6, align 8, !tbaa !4
  %64 = getelementptr inbounds i8, ptr %63, i64 1
  store ptr %64, ptr %6, align 8, !tbaa !4
  %65 = load ptr, ptr %6, align 8, !tbaa !4
  %66 = load i8, ptr %65, align 1, !tbaa !13
  %67 = sext i8 %66 to i32
  %68 = icmp eq i32 %67, 111
  br i1 %68, label %69, label %78

69:                                               ; preds = %62
  %70 = load ptr, ptr %6, align 8, !tbaa !4
  %71 = getelementptr inbounds i8, ptr %70, i64 1
  store ptr %71, ptr %6, align 8, !tbaa !4
  %72 = load ptr, ptr %6, align 8, !tbaa !4
  %73 = load i8, ptr %72, align 1, !tbaa !13
  %74 = sext i8 %73 to i32
  %75 = icmp eq i32 %74, 116
  br i1 %75, label %76, label %77

76:                                               ; preds = %69
  store i32 34, ptr %4, align 4
  br label %107

77:                                               ; preds = %69
  br label %78

78:                                               ; preds = %77, %62
  br label %79

79:                                               ; preds = %78, %55
  br label %105

80:                                               ; preds = %51
  %81 = load ptr, ptr %6, align 8, !tbaa !4
  %82 = getelementptr inbounds i8, ptr %81, i64 1
  store ptr %82, ptr %6, align 8, !tbaa !4
  %83 = load ptr, ptr %6, align 8, !tbaa !4
  %84 = load i8, ptr %83, align 1, !tbaa !13
  %85 = sext i8 %84 to i32
  %86 = icmp eq i32 %85, 112
  br i1 %86, label %87, label %104

87:                                               ; preds = %80
  %88 = load ptr, ptr %6, align 8, !tbaa !4
  %89 = getelementptr inbounds i8, ptr %88, i64 1
  store ptr %89, ptr %6, align 8, !tbaa !4
  %90 = load ptr, ptr %6, align 8, !tbaa !4
  %91 = load i8, ptr %90, align 1, !tbaa !13
  %92 = sext i8 %91 to i32
  %93 = icmp eq i32 %92, 111
  br i1 %93, label %94, label %103

94:                                               ; preds = %87
  %95 = load ptr, ptr %6, align 8, !tbaa !4
  %96 = getelementptr inbounds i8, ptr %95, i64 1
  store ptr %96, ptr %6, align 8, !tbaa !4
  %97 = load ptr, ptr %6, align 8, !tbaa !4
  %98 = load i8, ptr %97, align 1, !tbaa !13
  %99 = sext i8 %98 to i32
  %100 = icmp eq i32 %99, 115
  br i1 %100, label %101, label %102

101:                                              ; preds = %94
  store i32 39, ptr %4, align 4
  br label %107

102:                                              ; preds = %94
  br label %103

103:                                              ; preds = %102, %87
  br label %104

104:                                              ; preds = %103, %80
  br label %105

105:                                              ; preds = %51, %104, %79
  br label %106

106:                                              ; preds = %105, %3, %50, %27
  store i32 0, ptr %4, align 4
  br label %107

107:                                              ; preds = %106, %101, %76, %47, %25, %24
  %108 = load i32, ptr %4, align 4
  ret i32 %108
}