; Function Attrs: mustprogress nofree norecurse nosync nounwind willreturn memory(argmem: read) uwtable
define internal range(i32 0, 63) i32 @normal_predefinedEntityName(ptr readnone captures(none) %0, ptr noundef %1, ptr noundef %2) #8 {
  %4 = ptrtoint ptr %2 to i64
  %5 = ptrtoint ptr %1 to i64
  %6 = sub i64 %4, %5
  switch i64 %6, label %50 [
    i64 2, label %7
    i64 3, label %13
    i64 4, label %24
  ]

7:                                                ; preds = %3
  %8 = getelementptr inbounds nuw i8, ptr %1, i64 1
  %9 = load i8, ptr %8, align 1, !tbaa !9
  %10 = icmp eq i8 %9, 116
  br i1 %10, label %11, label %50

11:                                               ; preds = %7
  %12 = load i8, ptr %1, align 1, !tbaa !9
  %switch.selectcmp = icmp eq i8 %12, 103
  %switch.select = select i1 %switch.selectcmp, i32 62, i32 0
  %switch.selectcmp22 = icmp eq i8 %12, 108
  %switch.select23 = select i1 %switch.selectcmp22, i32 60, i32 %switch.select
  br label %51

13:                                               ; preds = %3
  %14 = load i8, ptr %1, align 1, !tbaa !9
  %15 = icmp eq i8 %14, 97
  br i1 %15, label %16, label %50

16:                                               ; preds = %13
  %17 = getelementptr inbounds nuw i8, ptr %1, i64 1
  %18 = load i8, ptr %17, align 1, !tbaa !9
  %19 = icmp eq i8 %18, 109
  br i1 %19, label %20, label %50

20:                                               ; preds = %16
  %21 = getelementptr inbounds nuw i8, ptr %1, i64 2
  %22 = load i8, ptr %21, align 1, !tbaa !9
  %23 = icmp eq i8 %22, 112
  br i1 %23, label %51, label %50

24:                                               ; preds = %3
  %25 = load i8, ptr %1, align 1, !tbaa !9
  switch i8 %25, label %50 [
    i8 113, label %26
    i8 97, label %38
  ]

26:                                               ; preds = %24
  %27 = getelementptr inbounds nuw i8, ptr %1, i64 1
  %28 = load i8, ptr %27, align 1, !tbaa !9
  %29 = icmp eq i8 %28, 117
  br i1 %29, label %30, label %50

30:                                               ; preds = %26
  %31 = getelementptr inbounds nuw i8, ptr %1, i64 2
  %32 = load i8, ptr %31, align 1, !tbaa !9
  %33 = icmp eq i8 %32, 111
  br i1 %33, label %34, label %50

34:                                               ; preds = %30
  %35 = getelementptr inbounds nuw i8, ptr %1, i64 3
  %36 = load i8, ptr %35, align 1, !tbaa !9
  %37 = icmp eq i8 %36, 116
  br i1 %37, label %51, label %50

38:                                               ; preds = %24
  %39 = getelementptr inbounds nuw i8, ptr %1, i64 1
  %40 = load i8, ptr %39, align 1, !tbaa !9
  %41 = icmp eq i8 %40, 112
  br i1 %41, label %42, label %50

42:                                               ; preds = %38
  %43 = getelementptr inbounds nuw i8, ptr %1, i64 2
  %44 = load i8, ptr %43, align 1, !tbaa !9
  %45 = icmp eq i8 %44, 111
  br i1 %45, label %46, label %50

46:                                               ; preds = %42
  %47 = getelementptr inbounds nuw i8, ptr %1, i64 3
  %48 = load i8, ptr %47, align 1, !tbaa !9
  %49 = icmp eq i8 %48, 115
  br i1 %49, label %51, label %50

50:                                               ; preds = %24, %30, %34, %26, %42, %46, %38, %13, %20, %16, %7, %3
  br label %51

51:                                               ; preds = %46, %34, %20, %11, %50
  %.0 = phi i32 [ 0, %50 ], [ %switch.select23, %11 ], [ 38, %20 ], [ 34, %34 ], [ 39, %46 ]
  ret i32 %.0
}